Certificate:
    Data:
        Version: 3 (0x2)
        Serial Number: 16453893808272670054 (0xe457f93dfe177d66)
    Signature Algorithm: sha256WithRSAEncryption
        Issuer: C=PL, ST=state, O=pwr, OU=pwr, CN=mycerti/emailAddress=242208@student.pwr.edu.pl
        Validity
            Not Before: Dec 20 11:22:56 2018 GMT
            Not After : Dec 19 11:22:56 2021 GMT
        Subject: C=PL, ST=state, O=pwr, OU=pwr, CN=mycerti/emailAddress=242208@student.pwr.edu.pl
        Subject Public Key Info:
            Public Key Algorithm: rsaEncryption
                Public-Key: (2048 bit)
                Modulus:
                    00:f9:e1:b4:74:75:e2:6c:66:20:6f:96:ec:83:a6:
                    ff:cc:3a:51:04:2e:3e:28:f0:91:42:2e:8a:bf:77:
                    eb:50:f9:3d:6e:25:bb:73:19:c0:bb:e2:e3:a0:ae:
                    97:00:7a:91:f0:dd:62:e2:31:91:db:b9:76:15:ee:
                    5b:d8:58:5e:c0:e9:f6:52:13:0a:3c:6b:90:c1:fc:
                    0e:d8:5e:26:2b:64:a3:61:51:26:b5:e3:fd:93:27:
                    00:85:81:d4:91:7c:28:c3:70:a1:6c:31:4f:d5:f9:
                    39:c8:96:42:62:89:72:6d:e4:d9:c7:c5:49:5e:06:
                    8c:64:fd:24:5a:64:28:3e:3f:50:27:66:2c:70:36:
                    a8:56:fb:3f:93:c6:8f:82:69:95:d3:0c:1c:a9:39:
                    89:01:62:f0:77:2a:40:10:5a:1f:4c:ae:f0:ea:de:
                    21:f1:af:6b:8e:6b:07:d6:12:0e:81:51:7a:26:f4:
                    a5:92:91:c6:50:4f:96:38:ad:ca:c6:67:c2:b3:e9:
                    f1:f2:ac:d8:5e:96:6d:94:a2:7b:d4:1e:c5:bc:97:
                    4e:2f:9b:86:57:17:16:bb:63:0c:94:3f:15:5f:2d:
                    85:99:fe:b7:82:a6:34:92:33:08:e9:5f:05:3b:7b:
                    c5:bd:2f:9a:c2:2c:ea:d3:2c:55:c2:55:4b:96:a0:
                    10:99
                Exponent: 65537 (0x10001)
        X509v3 extensions:
            X509v3 Subject Key Identifier: 
                11:4D:04:CB:97:35:80:7A:E4:AB:C1:8E:E5:64:D0:24:2A:BD:AA:4E
            X509v3 Authority Key Identifier: 
                keyid:11:4D:04:CB:97:35:80:7A:E4:AB:C1:8E:E5:64:D0:24:2A:BD:AA:4E

            X509v3 Basic Constraints: 
                CA:TRUE
    Signature Algorithm: sha256WithRSAEncryption
         a5:33:1a:5c:f1:2a:3c:9f:62:53:9c:c7:2e:38:62:7e:d0:c7:
         9c:10:4c:e1:e0:02:f0:95:f0:ae:37:54:bd:9d:7e:e7:67:11:
         3f:8a:33:ee:3a:fe:7e:c6:9a:aa:4d:24:16:19:98:8c:ac:52:
         58:0a:cf:fc:37:01:b2:05:96:d2:28:c7:99:a3:7e:4a:4b:89:
         c4:d6:0c:c8:52:da:a3:99:92:07:f3:86:98:dc:16:8f:1a:89:
         b7:18:f7:06:9d:05:e7:11:f5:f3:c1:c6:99:c0:53:42:65:02:
         17:b7:d9:36:7d:cc:e6:68:3f:3b:15:ab:12:b5:35:06:54:33:
         ce:e9:1c:f3:ea:7b:50:f7:22:b7:69:ba:33:76:86:dd:ba:45:
         b1:20:2b:3b:04:bf:47:63:59:dd:f4:63:dd:09:e8:4a:c2:07:
         fc:cf:5b:6c:57:b4:d9:89:40:be:71:ae:f8:15:0f:78:6f:86:
         cf:19:cf:0d:3e:7d:cf:e4:f2:2d:66:b3:bc:0f:aa:31:2c:91:
         a8:9a:55:10:15:02:45:4f:a7:67:2e:e1:77:34:3a:29:f3:01:
         a1:be:c5:38:db:e5:4a:eb:d8:64:93:ec:f6:9b:57:94:d3:9d:
         35:51:25:da:ba:db:2a:9b:e6:b2:24:36:80:fb:0e:08:5c:25:
         c0:f5:2d:57
-----BEGIN CERTIFICATE-----
MIIDvTCCAqWgAwIBAgIJAORX+T3+F31mMA0GCSqGSIb3DQEBCwUAMHUxCzAJBgNV
BAYTAlBMMQ4wDAYDVQQIDAVzdGF0ZTEMMAoGA1UECgwDcHdyMQwwCgYDVQQLDANw
d3IxEDAOBgNVBAMMB215Y2VydGkxKDAmBgkqhkiG9w0BCQEWGTI0MjIwOEBzdHVk
ZW50LnB3ci5lZHUucGwwHhcNMTgxMjIwMTEyMjU2WhcNMjExMjE5MTEyMjU2WjB1
MQswCQYDVQQGEwJQTDEOMAwGA1UECAwFc3RhdGUxDDAKBgNVBAoMA3B3cjEMMAoG
A1UECwwDcHdyMRAwDgYDVQQDDAdteWNlcnRpMSgwJgYJKoZIhvcNAQkBFhkyNDIy
MDhAc3R1ZGVudC5wd3IuZWR1LnBsMIIBIjANBgkqhkiG9w0BAQEFAAOCAQ8AMIIB
CgKCAQEA+eG0dHXibGYgb5bsg6b/zDpRBC4+KPCRQi6Kv3frUPk9biW7cxnAu+Lj
oK6XAHqR8N1i4jGR27l2Fe5b2FhewOn2UhMKPGuQwfwO2F4mK2SjYVEmteP9kycA
hYHUkXwow3ChbDFP1fk5yJZCYolybeTZx8VJXgaMZP0kWmQoPj9QJ2YscDaoVvs/
k8aPgmmV0wwcqTmJAWLwdypAEFofTK7w6t4h8a9rjmsH1hIOgVF6JvSlkpHGUE+W
OK3KxmfCs+nx8qzYXpZtlKJ71B7FvJdOL5uGVxcWu2MMlD8VXy2Fmf63gqY0kjMI
6V8FO3vFvS+awizq0yxVwlVLlqAQmQIDAQABo1AwTjAdBgNVHQ4EFgQUEU0Ey5c1
gHrkq8GO5WTQJCq9qk4wHwYDVR0jBBgwFoAUEU0Ey5c1gHrkq8GO5WTQJCq9qk4w
DAYDVR0TBAUwAwEB/zANBgkqhkiG9w0BAQsFAAOCAQEApTMaXPEqPJ9iU5zHLjhi
ftDHnBBM4eAC8JXwrjdUvZ1+52cRP4oz7jr+fsaaqk0kFhmYjKxSWArP/DcBsgWW
0ijHmaN+SkuJxNYMyFLao5mSB/OGmNwWjxqJtxj3Bp0F5xH188HGmcBTQmUCF7fZ
Nn3M5mg/OxWrErU1BlQzzukc8+p7UPcit2m6M3aG3bpFsSArOwS/R2NZ3fRj3Qno
SsIH/M9bbFe02YlAvnGu+BUPeG+GzxnPDT59z+TyLWazvA+qMSyRqJpVEBUCRU+n
Zy7hdzQ6KfMBob7FONvlSuvYZJPs9ptXlNOdNVEl2rrbKpvmsiQ2gPsOCFwlwPUt
Vw==
-----END CERTIFICATE-----
