Certificate:
    Data:
        Version: 3 (0x2)
        Serial Number: 16453893808272670055 (0xe457f93dfe177d67)
    Signature Algorithm: sha256WithRSAEncryption
        Issuer: C=PL, ST=state, O=pwr, OU=pwr, CN=mycerti/emailAddress=242208@student.pwr.edu.pl
        Validity
            Not Before: Dec 20 11:25:50 2018 GMT
            Not After : Dec 20 11:25:50 2019 GMT
        Subject: C=PL, ST=state, L=wroclaw, O=pwr, OU=pwr, CN=mycerti/emailAddress=242208@student.pwr.edu.pl
        Subject Public Key Info:
            Public Key Algorithm: rsaEncryption
                Public-Key: (2048 bit)
                Modulus:
                    00:97:a5:f4:d2:7c:3e:78:09:3c:6a:14:74:11:af:
                    df:56:6a:bf:79:a6:f2:81:e5:61:0f:22:f4:fc:03:
                    87:b2:19:a6:0d:52:c0:22:14:ee:e6:86:95:14:eb:
                    fc:b7:76:68:53:a0:3f:a9:e4:3c:fa:2f:42:87:fe:
                    6e:b9:80:27:5c:6c:79:a4:99:f0:ef:69:32:9a:23:
                    e7:04:57:6f:9d:ee:55:4a:29:dc:ce:c0:9c:bd:cd:
                    be:d5:5e:7f:80:2d:3c:06:1b:be:6c:81:9a:40:bb:
                    b0:31:17:fe:3c:0b:eb:33:3c:94:c1:58:3d:67:c2:
                    ca:7b:48:6e:b4:40:e8:79:b6:2c:f0:c8:98:9e:67:
                    ad:fd:47:f3:01:07:e8:4f:17:ac:00:ec:bb:81:d5:
                    3a:75:96:21:c1:4a:b0:53:e4:88:16:61:a1:43:df:
                    94:80:ec:cf:b6:19:9e:d5:fb:7b:c0:79:b0:e3:64:
                    9a:78:fb:b5:f5:24:e4:ca:90:2c:e9:56:fa:99:e3:
                    e2:c4:6e:bc:1a:1f:fe:65:93:10:97:a9:1c:18:8e:
                    49:b3:41:6c:56:dc:8d:e5:9d:8f:4f:81:59:7d:84:
                    e5:59:fa:e3:08:51:a6:a4:68:21:c0:cb:3b:10:eb:
                    d2:3d:9e:62:a0:78:ab:4e:a8:75:7f:f3:65:8b:61:
                    a4:f1
                Exponent: 65537 (0x10001)
        X509v3 extensions:
            X509v3 Basic Constraints: 
                CA:FALSE
            Netscape Comment: 
                OpenSSL Generated Certificate
            X509v3 Subject Key Identifier: 
                27:1F:8C:91:F5:45:3D:E4:45:6E:75:F6:A5:CF:1F:03:F4:CC:56:BD
            X509v3 Authority Key Identifier: 
                keyid:11:4D:04:CB:97:35:80:7A:E4:AB:C1:8E:E5:64:D0:24:2A:BD:AA:4E

    Signature Algorithm: sha256WithRSAEncryption
         3e:68:d8:85:08:f7:d9:84:f5:48:83:a9:18:c1:ce:d8:83:f4:
         34:98:a4:49:8d:b6:d2:83:4a:1e:d1:d5:78:98:92:a1:f2:ed:
         b8:ba:64:08:67:de:de:a0:ce:69:07:a7:5b:51:f5:24:a4:3c:
         32:b2:5e:00:54:e5:48:49:19:78:d1:f3:bd:db:58:62:32:66:
         22:bd:ce:58:5f:75:2f:4d:51:ef:ed:b5:75:65:d6:fb:0e:d9:
         36:3a:83:cc:0f:44:e1:03:63:12:8e:16:21:48:56:85:cf:8a:
         b8:d1:e3:b1:28:e2:8d:0a:21:c4:29:6f:ad:b9:de:be:2b:3f:
         b6:8e:13:10:4c:9e:fa:8c:b4:e5:a0:ec:51:db:10:29:62:19:
         3c:97:b3:67:73:f8:6b:20:fb:29:7b:7a:bb:05:91:b4:e4:2f:
         0c:0f:61:58:5d:4d:53:15:1a:a6:8f:90:f9:38:1c:d7:79:cd:
         50:21:91:ac:69:63:bb:63:1e:d1:13:08:83:3d:a4:3e:a2:3b:
         45:d6:9c:1d:37:7a:73:8f:00:9b:ef:e0:46:75:c8:11:d4:9b:
         49:bb:67:ed:5d:7b:45:73:83:61:29:03:e5:c7:14:77:3f:bf:
         62:45:21:f5:81:33:27:35:d0:37:d7:ea:e8:e0:d6:03:e8:6c:
         1f:cc:e7:37
-----BEGIN CERTIFICATE-----
MIID+zCCAuOgAwIBAgIJAORX+T3+F31nMA0GCSqGSIb3DQEBCwUAMHUxCzAJBgNV
BAYTAlBMMQ4wDAYDVQQIDAVzdGF0ZTEMMAoGA1UECgwDcHdyMQwwCgYDVQQLDANw
d3IxEDAOBgNVBAMMB215Y2VydGkxKDAmBgkqhkiG9w0BCQEWGTI0MjIwOEBzdHVk
ZW50LnB3ci5lZHUucGwwHhcNMTgxMjIwMTEyNTUwWhcNMTkxMjIwMTEyNTUwWjCB
hzELMAkGA1UEBhMCUEwxDjAMBgNVBAgMBXN0YXRlMRAwDgYDVQQHDAd3cm9jbGF3
MQwwCgYDVQQKDANwd3IxDDAKBgNVBAsMA3B3cjEQMA4GA1UEAwwHbXljZXJ0aTEo
MCYGCSqGSIb3DQEJARYZMjQyMjA4QHN0dWRlbnQucHdyLmVkdS5wbDCCASIwDQYJ
KoZIhvcNAQEBBQADggEPADCCAQoCggEBAJel9NJ8PngJPGoUdBGv31Zqv3mm8oHl
YQ8i9PwDh7IZpg1SwCIU7uaGlRTr/Ld2aFOgP6nkPPovQof+brmAJ1xseaSZ8O9p
Mpoj5wRXb53uVUop3M7AnL3NvtVef4AtPAYbvmyBmkC7sDEX/jwL6zM8lMFYPWfC
yntIbrRA6Hm2LPDImJ5nrf1H8wEH6E8XrADsu4HVOnWWIcFKsFPkiBZhoUPflIDs
z7YZntX7e8B5sONkmnj7tfUk5MqQLOlW+pnj4sRuvBof/mWTEJepHBiOSbNBbFbc
jeWdj0+BWX2E5Vn64whRpqRoIcDLOxDr0j2eYqB4q06odX/zZYthpPECAwEAAaN7
MHkwCQYDVR0TBAIwADAsBglghkgBhvhCAQ0EHxYdT3BlblNTTCBHZW5lcmF0ZWQg
Q2VydGlmaWNhdGUwHQYDVR0OBBYEFCcfjJH1RT3kRW519qXPHwP0zFa9MB8GA1Ud
IwQYMBaAFBFNBMuXNYB65KvBjuVk0CQqvapOMA0GCSqGSIb3DQEBCwUAA4IBAQA+
aNiFCPfZhPVIg6kYwc7Yg/Q0mKRJjbbSg0oe0dV4mJKh8u24umQIZ97eoM5pB6db
UfUkpDwysl4AVOVISRl40fO921hiMmYivc5YX3UvTVHv7bV1Zdb7Dtk2OoPMD0Th
A2MSjhYhSFaFz4q40eOxKOKNCiHEKW+tud6+Kz+2jhMQTJ76jLTloOxR2xApYhk8
l7Nnc/hrIPspe3q7BZG05C8MD2FYXU1TFRqmj5D5OBzXec1QIZGsaWO7Yx7REwiD
PaQ+ojtF1pwdN3pzjwCb7+BGdcgR1JtJu2ftXXtFc4NhKQPlxxR3P79iRSH1gTMn
NdA31+ro4NYD6GwfzOc3
-----END CERTIFICATE-----
